target datalayout = "e-m:e-p270:32:32-p271:32:32-p272:64:64-i64:64-i128:128-f80:128-n8:16:32:64-S128"
target triple = "x86_64-pc-linux-gnu"

; Function Attrs: nounwind uwtable
define i64 @Npn_TruthPadWord(i64 noundef %0, i32 noundef %1) #0 {
  %3 = alloca i64, align 8
  %4 = alloca i64, align 8
  %5 = alloca i32, align 4
  store i64 %0, ptr %4, align 8
  store i32 %1, ptr %5, align 4
  %6 = load i32, ptr %5, align 4
  %7 = icmp eq i32 %6, 6
  br i1 %7, label %8, label %10

8:                                                ; preds = %2
  %9 = load i64, ptr %4, align 8
  store i64 %9, ptr %3, align 8
  br label %72

10:                                               ; preds = %2
  %11 = load i32, ptr %5, align 4
  %12 = icmp sle i32 %11, 5
  br i1 %12, label %13, label %20

13:                                               ; preds = %10
  %14 = load i64, ptr %4, align 8
  %15 = and i64 %14, 4294967295
  %16 = shl i64 %15, 32
  %17 = load i64, ptr %4, align 8
  %18 = and i64 %17, 4294967295
  %19 = or i64 %16, %18
  store i64 %19, ptr %4, align 8
  br label %20

20:                                               ; preds = %13, %10
  %21 = load i32, ptr %5, align 4
  %22 = icmp sle i32 %21, 4
  br i1 %22, label %23, label %30

23:                                               ; preds = %20
  %24 = load i64, ptr %4, align 8
  %25 = and i64 %24, 281470681808895
  %26 = shl i64 %25, 16
  %27 = load i64, ptr %4, align 8
  %28 = and i64 %27, 281470681808895
  %29 = or i64 %26, %28
  store i64 %29, ptr %4, align 8
  br label %30

30:                                               ; preds = %23, %20
  %31 = load i32, ptr %5, align 4
  %32 = icmp sle i32 %31, 3
  br i1 %32, label %33, label %40

33:                                               ; preds = %30
  %34 = load i64, ptr %4, align 8
  %35 = and i64 %34, 71777214294589695
  %36 = shl i64 %35, 8
  %37 = load i64, ptr %4, align 8
  %38 = and i64 %37, 71777214294589695
  %39 = or i64 %36, %38
  store i64 %39, ptr %4, align 8
  br label %40

40:                                               ; preds = %33, %30
  %41 = load i32, ptr %5, align 4
  %42 = icmp sle i32 %41, 2
  br i1 %42, label %43, label %50

43:                                               ; preds = %40
  %44 = load i64, ptr %4, align 8
  %45 = and i64 %44, 1085102592571150095
  %46 = shl i64 %45, 4
  %47 = load i64, ptr %4, align 8
  %48 = and i64 %47, 1085102592571150095
  %49 = or i64 %46, %48
  store i64 %49, ptr %4, align 8
  br label %50

50:                                               ; preds = %43, %40
  %51 = load i32, ptr %5, align 4
  %52 = icmp sle i32 %51, 1
  br i1 %52, label %53, label %60

53:                                               ; preds = %50
  %54 = load i64, ptr %4, align 8
  %55 = and i64 %54, 3689348814741910323
  %56 = shl i64 %55, 2
  %57 = load i64, ptr %4, align 8
  %58 = and i64 %57, 3689348814741910323
  %59 = or i64 %56, %58
  store i64 %59, ptr %4, align 8
  br label %60

60:                                               ; preds = %53, %50
  %61 = load i32, ptr %5, align 4
  %62 = icmp eq i32 %61, 0
  br i1 %62, label %63, label %70

63:                                               ; preds = %60
  %64 = load i64, ptr %4, align 8
  %65 = and i64 %64, 6148914691236517205
  %66 = shl i64 %65, 1
  %67 = load i64, ptr %4, align 8
  %68 = and i64 %67, 6148914691236517205
  %69 = or i64 %66, %68
  store i64 %69, ptr %4, align 8
  br label %70

70:                                               ; preds = %63, %60
  %71 = load i64, ptr %4, align 8
  store i64 %71, ptr %3, align 8
  br label %72

72:                                               ; preds = %70, %8
  %73 = load i64, ptr %3, align 8
  ret i64 %73
}