; Function Attrs: mustprogress nofree norecurse nosync nounwind willreturn memory(none) uwtable
define i64 @Npn_TruthPadWord(i64 noundef %0, i32 noundef %1) local_unnamed_addr #3 {
  %3 = icmp eq i32 %1, 6
  br i1 %3, label %23, label %4

4:                                                ; preds = %2
  %5 = icmp slt i32 %1, 6
  %6 = and i64 %0, 4294967295
  %7 = mul nuw i64 %6, 4294967297
  %.022 = select i1 %5, i64 %7, i64 %0
  %8 = icmp slt i32 %1, 5
  %9 = and i64 %.022, 281470681808895
  %10 = mul nuw i64 %9, 65537
  %.1 = select i1 %8, i64 %10, i64 %.022
  %11 = icmp slt i32 %1, 4
  %12 = and i64 %.1, 71777214294589695
  %13 = mul nuw i64 %12, 257
  %.2 = select i1 %11, i64 %13, i64 %.1
  %14 = icmp slt i32 %1, 3
  %15 = and i64 %.2, 1085102592571150095
  %16 = mul nuw i64 %15, 17
  %.3 = select i1 %14, i64 %16, i64 %.2
  %17 = icmp slt i32 %1, 2
  %18 = and i64 %.3, 3689348814741910323
  %19 = mul nuw i64 %18, 5
  %.4 = select i1 %17, i64 %19, i64 %.3
  %20 = icmp eq i32 %1, 0
  %21 = and i64 %.4, 6148914691236517205
  %22 = mul nuw i64 %21, 3
  %.5 = select i1 %20, i64 %22, i64 %.4
  br label %23

23:                                               ; preds = %2, %4
  %.0 = phi i64 [ %.5, %4 ], [ %0, %2 ]
  ret i64 %.0
}